target datalayout = "e-m:e-p270:32:32-p271:32:32-p272:64:64-i64:64-i128:128-f80:128-n8:16:32:64-S128"
target triple = "x86_64-unknown-linux-gnu"

%"class.google::protobuf::io::Tokenizer" = type { %"struct.google::protobuf::io::Tokenizer::Token", %"struct.google::protobuf::io::Tokenizer::Token", ptr, ptr, i8, ptr, i32, i32, i8, i32, i32, ptr, i32, i8, i32, i8, i8, i8, i8 }
%"struct.google::protobuf::io::Tokenizer::Token" = type <{ i32, [4 x i8], %"class.std::__cxx11::basic_string", i32, i32, i32, [4 x i8] }>
%"class.std::__cxx11::basic_string" = type { %"struct.std::__cxx11::basic_string<char>::_Alloc_hider", i64, %union.anon }
%"struct.std::__cxx11::basic_string<char>::_Alloc_hider" = type { ptr }
%union.anon = type { i64, [8 x i8] }

; Function Attrs: mustprogress uwtable
define void @_ZN6google8protobuf2io9Tokenizer7RefreshEv(ptr noundef nonnull align 8 dereferenceable(192) %this) #6 align 2 {
entry:
  %this.addr = alloca ptr, align 8
  %data = alloca ptr, align 8
  store ptr %this, ptr %this.addr, align 8
  %this1 = load ptr, ptr %this.addr, align 8
  %read_error_ = getelementptr inbounds %"class.google::protobuf::io::Tokenizer", ptr %this1, i32 0, i32 8
  %0 = load i8, ptr %read_error_, align 8
  %tobool = trunc i8 %0 to i1
  br i1 %tobool, label %if.then, label %if.end

if.then:                                          ; preds = %entry
  %current_char_ = getelementptr inbounds %"class.google::protobuf::io::Tokenizer", ptr %this1, i32 0, i32 4
  store i8 0, ptr %current_char_, align 8
  br label %return

if.end:                                           ; preds = %entry
  %record_target_ = getelementptr inbounds %"class.google::protobuf::io::Tokenizer", ptr %this1, i32 0, i32 11
  %1 = load ptr, ptr %record_target_, align 8
  %cmp = icmp ne ptr %1, null
  br i1 %cmp, label %land.lhs.true, label %if.end9

land.lhs.true:                                    ; preds = %if.end
  %record_start_ = getelementptr inbounds %"class.google::protobuf::io::Tokenizer", ptr %this1, i32 0, i32 12
  %2 = load i32, ptr %record_start_, align 8
  %buffer_size_ = getelementptr inbounds %"class.google::protobuf::io::Tokenizer", ptr %this1, i32 0, i32 6
  %3 = load i32, ptr %buffer_size_, align 8
  %cmp2 = icmp slt i32 %2, %3
  br i1 %cmp2, label %if.then3, label %if.end9

if.then3:                                         ; preds = %land.lhs.true
  %record_target_4 = getelementptr inbounds %"class.google::protobuf::io::Tokenizer", ptr %this1, i32 0, i32 11
  %4 = load ptr, ptr %record_target_4, align 8
  %buffer_ = getelementptr inbounds %"class.google::protobuf::io::Tokenizer", ptr %this1, i32 0, i32 5
  %5 = load ptr, ptr %buffer_, align 8
  %record_start_5 = getelementptr inbounds %"class.google::protobuf::io::Tokenizer", ptr %this1, i32 0, i32 12
  %6 = load i32, ptr %record_start_5, align 8
  %idx.ext = sext i32 %6 to i64
  %add.ptr = getelementptr inbounds i8, ptr %5, i64 %idx.ext
  %buffer_size_6 = getelementptr inbounds %"class.google::protobuf::io::Tokenizer", ptr %this1, i32 0, i32 6
  %7 = load i32, ptr %buffer_size_6, align 8
  %record_start_7 = getelementptr inbounds %"class.google::protobuf::io::Tokenizer", ptr %this1, i32 0, i32 12
  %8 = load i32, ptr %record_start_7, align 8
  %sub = sub nsw i32 %7, %8
  %conv = sext i32 %sub to i64
  %call = call noundef nonnull align 8 dereferenceable(32) ptr @_ZNSt7__cxx1112basic_stringIcSt11char_traitsIcESaIcEE6appendEPKcm(ptr noundef nonnull align 8 dereferenceable(32) %4, ptr noundef %add.ptr, i64 noundef %conv)
  %record_start_8 = getelementptr inbounds %"class.google::protobuf::io::Tokenizer", ptr %this1, i32 0, i32 12
  store i32 0, ptr %record_start_8, align 8
  br label %if.end9

if.end9:                                          ; preds = %if.then3, %land.lhs.true, %if.end
  store ptr null, ptr %data, align 8
  %buffer_10 = getelementptr inbounds %"class.google::protobuf::io::Tokenizer", ptr %this1, i32 0, i32 5
  store ptr null, ptr %buffer_10, align 8
  %buffer_pos_ = getelementptr inbounds %"class.google::protobuf::io::Tokenizer", ptr %this1, i32 0, i32 7
  store i32 0, ptr %buffer_pos_, align 4
  br label %do.body

do.body:                                          ; preds = %do.cond, %if.end9
  %input_ = getelementptr inbounds %"class.google::protobuf::io::Tokenizer", ptr %this1, i32 0, i32 2
  %9 = load ptr, ptr %input_, align 8
  %buffer_size_11 = getelementptr inbounds %"class.google::protobuf::io::Tokenizer", ptr %this1, i32 0, i32 6
  %vtable = load ptr, ptr %9, align 8
  %vfn = getelementptr inbounds ptr, ptr %vtable, i64 2
  %10 = load ptr, ptr %vfn, align 8
  %call12 = call noundef zeroext i1 %10(ptr noundef nonnull align 8 dereferenceable(8) %9, ptr noundef %data, ptr noundef %buffer_size_11)
  br i1 %call12, label %if.end17, label %if.then13

if.then13:                                        ; preds = %do.body
  %buffer_size_14 = getelementptr inbounds %"class.google::protobuf::io::Tokenizer", ptr %this1, i32 0, i32 6
  store i32 0, ptr %buffer_size_14, align 8
  %read_error_15 = getelementptr inbounds %"class.google::protobuf::io::Tokenizer", ptr %this1, i32 0, i32 8
  store i8 1, ptr %read_error_15, align 8
  %current_char_16 = getelementptr inbounds %"class.google::protobuf::io::Tokenizer", ptr %this1, i32 0, i32 4
  store i8 0, ptr %current_char_16, align 8
  br label %return

if.end17:                                         ; preds = %do.body
  br label %do.cond

do.cond:                                          ; preds = %if.end17
  %buffer_size_18 = getelementptr inbounds %"class.google::protobuf::io::Tokenizer", ptr %this1, i32 0, i32 6
  %11 = load i32, ptr %buffer_size_18, align 8
  %cmp19 = icmp eq i32 %11, 0
  br i1 %cmp19, label %do.body, label %do.end, !llvm.loop !4

do.end:                                           ; preds = %do.cond
  %12 = load ptr, ptr %data, align 8
  %buffer_20 = getelementptr inbounds %"class.google::protobuf::io::Tokenizer", ptr %this1, i32 0, i32 5
  store ptr %12, ptr %buffer_20, align 8
  %buffer_21 = getelementptr inbounds %"class.google::protobuf::io::Tokenizer", ptr %this1, i32 0, i32 5
  %13 = load ptr, ptr %buffer_21, align 8
  %arrayidx = getelementptr inbounds i8, ptr %13, i64 0
  %14 = load i8, ptr %arrayidx, align 1
  %current_char_22 = getelementptr inbounds %"class.google::protobuf::io::Tokenizer", ptr %this1, i32 0, i32 4
  store i8 %14, ptr %current_char_22, align 8
  br label %return

return:                                           ; preds = %do.end, %if.then13, %if.then
  ret void
}