; Function Attrs: mustprogress uwtable
define void @_ZN6google8protobuf2io9Tokenizer7RefreshEv(ptr noundef nonnull align 8 dereferenceable(192) %this) local_unnamed_addr #6 align 2 {
entry:
  %data = alloca ptr, align 8
  %read_error_ = getelementptr inbounds nuw i8, ptr %this, i64 152
  %0 = load i8, ptr %read_error_, align 8
  %tobool = trunc i8 %0 to i1
  br i1 %tobool, label %return, label %if.end

if.end:                                           ; preds = %entry
  %record_target_ = getelementptr inbounds nuw i8, ptr %this, i64 168
  %1 = load ptr, ptr %record_target_, align 8
  %cmp.not = icmp eq ptr %1, null
  br i1 %cmp.not, label %if.end9, label %land.lhs.true

land.lhs.true:                                    ; preds = %if.end
  %record_start_ = getelementptr inbounds nuw i8, ptr %this, i64 176
  %2 = load i32, ptr %record_start_, align 8
  %buffer_size_ = getelementptr inbounds nuw i8, ptr %this, i64 144
  %3 = load i32, ptr %buffer_size_, align 8
  %cmp2 = icmp slt i32 %2, %3
  br i1 %cmp2, label %if.then3, label %if.end9

if.then3:                                         ; preds = %land.lhs.true
  %buffer_ = getelementptr inbounds nuw i8, ptr %this, i64 136
  %4 = load ptr, ptr %buffer_, align 8
  %idx.ext = sext i32 %2 to i64
  %add.ptr = getelementptr inbounds i8, ptr %4, i64 %idx.ext
  %sub = sub nsw i32 %3, %2
  %conv = sext i32 %sub to i64
  %call = tail call noundef nonnull align 8 dereferenceable(32) ptr @_ZNSt7__cxx1112basic_stringIcSt11char_traitsIcESaIcEE6appendEPKcm(ptr noundef nonnull align 8 dereferenceable(32) %1, ptr noundef %add.ptr, i64 noundef %conv)
  store i32 0, ptr %record_start_, align 8
  br label %if.end9

if.end9:                                          ; preds = %if.then3, %land.lhs.true, %if.end
  store ptr null, ptr %data, align 8
  %buffer_10 = getelementptr inbounds nuw i8, ptr %this, i64 136
  store ptr null, ptr %buffer_10, align 8
  %buffer_pos_ = getelementptr inbounds nuw i8, ptr %this, i64 148
  store i32 0, ptr %buffer_pos_, align 4
  %input_ = getelementptr inbounds nuw i8, ptr %this, i64 112
  %buffer_size_11 = getelementptr inbounds nuw i8, ptr %this, i64 144
  br label %do.body

do.body:                                          ; preds = %do.cond, %if.end9
  %5 = load ptr, ptr %input_, align 8
  %vtable = load ptr, ptr %5, align 8
  %vfn = getelementptr inbounds nuw i8, ptr %vtable, i64 16
  %6 = load ptr, ptr %vfn, align 8
  %call12 = call noundef zeroext i1 %6(ptr noundef nonnull align 8 dereferenceable(8) %5, ptr noundef nonnull %data, ptr noundef nonnull %buffer_size_11)
  br i1 %call12, label %do.cond, label %if.then13

if.then13:                                        ; preds = %do.body
  store i32 0, ptr %buffer_size_11, align 8
  store i8 1, ptr %read_error_, align 8
  br label %return

do.cond:                                          ; preds = %do.body
  %7 = load i32, ptr %buffer_size_11, align 8
  %cmp19 = icmp eq i32 %7, 0
  br i1 %cmp19, label %do.body, label %do.end, !llvm.loop !4

do.end:                                           ; preds = %do.cond
  %8 = load ptr, ptr %data, align 8
  store ptr %8, ptr %buffer_10, align 8
  %9 = load i8, ptr %8, align 1
  br label %return

return:                                           ; preds = %entry, %do.end, %if.then13
  %.sink = phi i8 [ %9, %do.end ], [ 0, %if.then13 ], [ 0, %entry ]
  %current_char_22 = getelementptr inbounds nuw i8, ptr %this, i64 128
  store i8 %.sink, ptr %current_char_22, align 8
  ret void
}